target datalayout = "e-m:e-p270:32:32-p271:32:32-p272:64:64-i64:64-i128:128-f80:128-n8:16:32:64-S128"
target triple = "x86_64-pc-linux-gnu"

; Function Attrs: mustprogress uwtable
define void @_ZN7rocksdb27OptimisticTransactionDBImpl23ReinitializeTransactionEPNS_11TransactionERKNS_12WriteOptionsERKNS_28OptimisticTransactionOptionsE(ptr noundef nonnull align 8 dereferenceable(56) %0, ptr noundef %1, ptr noundef nonnull align 8 dereferenceable(25) %2, ptr noundef nonnull align 8 dereferenceable(16) %3) #5 align 2 {
  %5 = alloca ptr, align 8
  %6 = alloca ptr, align 8
  %7 = alloca ptr, align 8
  %8 = alloca ptr, align 8
  %9 = alloca ptr, align 8
  store ptr %0, ptr %5, align 8, !tbaa !70
  store ptr %1, ptr %6, align 8, !tbaa !76
  store ptr %2, ptr %7, align 8, !tbaa !72
  store ptr %3, ptr %8, align 8, !tbaa !74
  %10 = load ptr, ptr %5, align 8
  call void @llvm.lifetime.start.p0(i64 8, ptr %9) #4
  %11 = load ptr, ptr %6, align 8, !tbaa !76
  store ptr %11, ptr %9, align 8, !tbaa !78
  %12 = load ptr, ptr %9, align 8, !tbaa !78
  %13 = load ptr, ptr %7, align 8, !tbaa !72
  %14 = load ptr, ptr %8, align 8, !tbaa !74
  call void @_ZN7rocksdb21OptimisticTransaction12ReinitializeEPNS_23OptimisticTransactionDBERKNS_12WriteOptionsERKNS_28OptimisticTransactionOptionsE(ptr noundef nonnull align 8 dereferenceable(408) %12, ptr noundef %10, ptr noundef nonnull align 8 dereferenceable(25) %13, ptr noundef nonnull align 8 dereferenceable(16) %14)
  call void @llvm.lifetime.end.p0(i64 8, ptr %9) #4
  ret void
}

; Function Attrs: mustprogress uwtable
define noundef ptr @_ZN7rocksdb27OptimisticTransactionDBImpl16BeginTransactionERKNS_12WriteOptionsERKNS_28OptimisticTransactionOptionsEPNS_11TransactionE(ptr noundef nonnull align 8 dereferenceable(56) %0, ptr noundef nonnull align 8 dereferenceable(25) %1, ptr noundef nonnull align 8 dereferenceable(16) %2, ptr noundef %3) unnamed_addr #5 align 2 personality ptr @__gxx_personality_v0 {
  %5 = alloca ptr, align 8
  %6 = alloca ptr, align 8
  %7 = alloca ptr, align 8
  %8 = alloca ptr, align 8
  %9 = alloca ptr, align 8
  %10 = alloca ptr, align 8
  %11 = alloca i32, align 4
  store ptr %0, ptr %6, align 8, !tbaa !70
  store ptr %1, ptr %7, align 8, !tbaa !72
  store ptr %2, ptr %8, align 8, !tbaa !74
  store ptr %3, ptr %9, align 8, !tbaa !76
  %12 = load ptr, ptr %6, align 8
  %13 = load ptr, ptr %9, align 8, !tbaa !76
  %14 = icmp ne ptr %13, null
  br i1 %14, label %15, label %20

15:                                               ; preds = %4
  %16 = load ptr, ptr %9, align 8, !tbaa !76
  %17 = load ptr, ptr %7, align 8, !tbaa !72
  %18 = load ptr, ptr %8, align 8, !tbaa !74
  call void @_ZN7rocksdb27OptimisticTransactionDBImpl23ReinitializeTransactionEPNS_11TransactionERKNS_12WriteOptionsERKNS_28OptimisticTransactionOptionsE(ptr noundef nonnull align 8 dereferenceable(56) %12, ptr noundef %16, ptr noundef nonnull align 8 dereferenceable(25) %17, ptr noundef nonnull align 8 dereferenceable(16) %18)
  %19 = load ptr, ptr %9, align 8, !tbaa !76
  store ptr %19, ptr %5, align 8
  br label %29

20:                                               ; preds = %4
  %21 = call noalias noundef nonnull ptr @_Znwm(i64 noundef 408) #24
  %22 = load ptr, ptr %7, align 8, !tbaa !72
  %23 = load ptr, ptr %8, align 8, !tbaa !74
  invoke void @_ZN7rocksdb21OptimisticTransactionC1EPNS_23OptimisticTransactionDBERKNS_12WriteOptionsERKNS_28OptimisticTransactionOptionsE(ptr noundef nonnull align 8 dereferenceable(408) %21, ptr noundef %12, ptr noundef nonnull align 8 dereferenceable(25) %22, ptr noundef nonnull align 8 dereferenceable(16) %23)
          to label %24 unwind label %25

24:                                               ; preds = %20
  store ptr %21, ptr %5, align 8
  br label %29

25:                                               ; preds = %20
  %26 = landingpad { ptr, i32 }
          cleanup
  %27 = extractvalue { ptr, i32 } %26, 0
  store ptr %27, ptr %10, align 8
  %28 = extractvalue { ptr, i32 } %26, 1
  store i32 %28, ptr %11, align 4
  call void @_ZdlPvm(ptr noundef %21, i64 noundef 408) #25
  br label %31

29:                                               ; preds = %24, %15
  %30 = load ptr, ptr %5, align 8
  ret ptr %30

31:                                               ; preds = %25
  %32 = load ptr, ptr %10, align 8
  %33 = load i32, ptr %11, align 4
  %34 = insertvalue { ptr, i32 } poison, ptr %32, 0
  %35 = insertvalue { ptr, i32 } %34, i32 %33, 1
  resume { ptr, i32 } %35
}