; Function Attrs: mustprogress uwtable
define noundef nonnull ptr @_ZN7rocksdb27OptimisticTransactionDBImpl16BeginTransactionERKNS_12WriteOptionsERKNS_28OptimisticTransactionOptionsEPNS_11TransactionE(ptr noundef nonnull align 8 dereferenceable(56) %0, ptr noundef nonnull align 8 dereferenceable(25) %1, ptr noundef nonnull align 8 dereferenceable(16) %2, ptr noundef %3) unnamed_addr #4 align 2 personality ptr @__gxx_personality_v0 {
  %.not = icmp eq ptr %3, null
  br i1 %.not, label %6, label %5

5:                                                ; preds = %4
  tail call void @_ZN7rocksdb21OptimisticTransaction12ReinitializeEPNS_23OptimisticTransactionDBERKNS_12WriteOptionsERKNS_28OptimisticTransactionOptionsE(ptr noundef nonnull align 8 dereferenceable(408) %3, ptr noundef nonnull align 8 dereferenceable(56) %0, ptr noundef nonnull align 8 dereferenceable(25) %1, ptr noundef nonnull align 8 dereferenceable(16) %2)
  br label %10

6:                                                ; preds = %4
  %7 = tail call noalias noundef nonnull dereferenceable(408) ptr @_Znwm(i64 noundef 408) #23
  invoke void @_ZN7rocksdb21OptimisticTransactionC1EPNS_23OptimisticTransactionDBERKNS_12WriteOptionsERKNS_28OptimisticTransactionOptionsE(ptr noundef nonnull align 8 dereferenceable(408) %7, ptr noundef nonnull %0, ptr noundef nonnull align 8 dereferenceable(25) %1, ptr noundef nonnull align 8 dereferenceable(16) %2)
          to label %10 unwind label %8

8:                                                ; preds = %6
  %9 = landingpad { ptr, i32 }
          cleanup
  tail call void @_ZdlPvm(ptr noundef nonnull %7, i64 noundef 408) #22
  resume { ptr, i32 } %9

10:                                               ; preds = %6, %5
  %.0 = phi ptr [ %3, %5 ], [ %7, %6 ]
  ret ptr %.0
}